; Function Attrs: nounwind uwtable
define internal fastcc ptr @decompile_conbin(ptr noundef nonnull %0, ptr noundef %1) unnamed_addr #0 {
  %3 = alloca i8, align 1
  call void @llvm.lifetime.start.p0(i64 1, ptr nonnull %3) #15
  %4 = getelementptr i8, ptr %0, i64 16
  %.val = load ptr, ptr %4, align 8
  %5 = getelementptr inbounds nuw i8, ptr %.val, i64 22
  %6 = load i8, ptr %5, align 2
  %7 = zext i8 %6 to i64
  %8 = getelementptr inbounds nuw i8, ptr %.val, i64 %7
  %9 = call fastcc i64 @heap_getattr(ptr noundef %0, i32 noundef 28, ptr noundef %1, ptr noundef %3)
  %10 = load i8, ptr %3, align 1, !range !6, !noundef !7
  %11 = trunc nuw i8 %10 to i1
  br i1 %11, label %12, label %16

12:                                               ; preds = %2
  %13 = call zeroext i1 @errstart_cold(i32 noundef 21, ptr noundef null) #16
  call void @llvm.assume(i1 %13)
  %14 = load i32, ptr %8, align 4
  %15 = call i32 (ptr, ...) @errmsg_internal(ptr noundef nonnull @.str.416, i32 noundef %14) #15
  call void @errfinish(ptr noundef nonnull @.str.2, i32 noundef 16516, ptr noundef nonnull @__func__.decompile_conbin) #15
  unreachable

16:                                               ; preds = %2
  %17 = getelementptr inbounds nuw i8, ptr %8, i64 80
  %18 = load i32, ptr %17, align 4
  %19 = zext i32 %18 to i64
  %20 = call i64 @DirectFunctionCall2Coll(ptr noundef nonnull @pg_get_expr, i32 noundef 0, i64 noundef %9, i64 noundef %19) #15
  %21 = inttoptr i64 %20 to ptr
  %22 = call ptr @text_to_cstring(ptr noundef %21) #15
  call void @llvm.lifetime.end.p0(i64 1, ptr nonnull %3) #15
  ret ptr %22
}